target datalayout = "e-m:e-p270:32:32-p271:32:32-p272:64:64-i64:64-i128:128-f80:128-n8:16:32:64-S128"
target triple = "x86_64-pc-linux-gnu"

@.str.3 = private unnamed_addr constant [6 x i8] c"false\00", align 1

; Function Attrs: nounwind uwtable
define hidden zeroext i1 @SDL_GetStringBoolean(ptr noundef %0, i1 noundef zeroext %1) #0 {
  %3 = alloca i1, align 1
  %4 = alloca ptr, align 8
  %5 = alloca i8, align 1
  store ptr %0, ptr %4, align 8
  %6 = zext i1 %1 to i8
  store i8 %6, ptr %5, align 1
  %7 = load ptr, ptr %4, align 8
  %8 = icmp ne ptr %7, null
  br i1 %8, label %9, label %13

9:                                                ; preds = %2
  %10 = load ptr, ptr %4, align 8
  %11 = load i8, ptr %10, align 1
  %12 = icmp ne i8 %11, 0
  br i1 %12, label %16, label %13

13:                                               ; preds = %9, %2
  %14 = load i8, ptr %5, align 1, !range !6, !noundef !7
  %15 = trunc i8 %14 to i1
  store i1 %15, ptr %3, align 1
  br label %27

16:                                               ; preds = %9
  %17 = load ptr, ptr %4, align 8
  %18 = load i8, ptr %17, align 1
  %19 = sext i8 %18 to i32
  %20 = icmp eq i32 %19, 48
  br i1 %20, label %25, label %21

21:                                               ; preds = %16
  %22 = load ptr, ptr %4, align 8
  %23 = call i32 @SDL_strcasecmp_REAL(ptr noundef %22, ptr noundef @.str.3)
  %24 = icmp eq i32 %23, 0
  br i1 %24, label %25, label %26

25:                                               ; preds = %21, %16
  store i1 false, ptr %3, align 1
  br label %27

26:                                               ; preds = %21
  store i1 true, ptr %3, align 1
  br label %27

27:                                               ; preds = %26, %25, %13
  %28 = load i1, ptr %3, align 1
  ret i1 %28
}

; Function Attrs: nounwind uwtable
define hidden zeroext i1 @SDL_GetHintBoolean_REAL(ptr noundef %0, i1 noundef zeroext %1) #0 {
  %3 = alloca ptr, align 8
  %4 = alloca i8, align 1
  %5 = alloca ptr, align 8
  store ptr %0, ptr %3, align 8
  %6 = zext i1 %1 to i8
  store i8 %6, ptr %4, align 1
  call void @llvm.lifetime.start.p0(i64 8, ptr %5) #3
  %7 = load ptr, ptr %3, align 8
  %8 = call ptr @SDL_GetHint_REAL(ptr noundef %7)
  store ptr %8, ptr %5, align 8
  %9 = load ptr, ptr %5, align 8
  %10 = load i8, ptr %4, align 1, !range !6, !noundef !7
  %11 = trunc i8 %10 to i1
  %12 = call zeroext i1 @SDL_GetStringBoolean(ptr noundef %9, i1 noundef zeroext %11)
  call void @llvm.lifetime.end.p0(i64 8, ptr %5) #3
  ret i1 %12
}