; Function Attrs: nounwind uwtable
define hidden noundef zeroext i1 @SDL_GetHintBoolean_REAL(ptr noundef %0, i1 noundef zeroext %1) local_unnamed_addr #1 {
  %3 = tail call ptr @SDL_GetHint_REAL(ptr noundef %0)
  %.not.i = icmp eq ptr %3, null
  br i1 %.not.i, label %SDL_GetStringBoolean.exit, label %4

4:                                                ; preds = %2
  %5 = load i8, ptr %3, align 1
  switch i8 %5, label %6 [
    i8 0, label %SDL_GetStringBoolean.exit
    i8 48, label %9
  ]

6:                                                ; preds = %4
  %7 = tail call i32 @SDL_strcasecmp_REAL(ptr noundef nonnull %3, ptr noundef nonnull @.str.3) #3
  %8 = icmp eq i32 %7, 0
  br i1 %8, label %9, label %SDL_GetStringBoolean.exit

9:                                                ; preds = %6, %4
  br label %SDL_GetStringBoolean.exit

SDL_GetStringBoolean.exit:                        ; preds = %2, %4, %6, %9
  %.0.i = phi i1 [ false, %9 ], [ %1, %4 ], [ %1, %2 ], [ true, %6 ]
  ret i1 %.0.i
}